; Function Attrs: mustprogress uwtable
define hidden noundef zeroext i1 @_ZN11bv_rewriter14is_x_minus_oneEP4exprRS1_(ptr noundef nonnull align 8 dereferenceable(157) %0, ptr noundef readonly captures(none) %1, ptr noundef nonnull writeonly align 8 captures(none) dereferenceable(8) %2) local_unnamed_addr #3 align 2 {
  %4 = getelementptr inbounds nuw i8, ptr %0, i64 8
  %5 = load i32, ptr %4, align 8, !tbaa !75
  %6 = getelementptr inbounds nuw i8, ptr %1, i64 4
  %7 = load i32, ptr %6, align 4
  %8 = and i32 %7, 65535
  %9 = icmp eq i32 %8, 0
  br i1 %9, label %10, label %_ZNK13poly_rewriterI16bv_rewriter_coreE6is_addEP4expr.exit.thread

10:                                               ; preds = %3
  %11 = getelementptr inbounds nuw i8, ptr %1, i64 16
  %12 = load ptr, ptr %11, align 8, !tbaa !78
  %13 = getelementptr inbounds nuw i8, ptr %12, i64 24
  %14 = load ptr, ptr %13, align 8, !tbaa !57
  %.not.i.i.i.i = icmp eq ptr %14, null
  br i1 %.not.i.i.i.i, label %_ZNK13poly_rewriterI16bv_rewriter_coreE6is_addEP4expr.exit.thread, label %_ZNK13poly_rewriterI16bv_rewriter_coreE6is_addEP4expr.exit

_ZNK13poly_rewriterI16bv_rewriter_coreE6is_addEP4expr.exit: ; preds = %10
  %15 = load i32, ptr %14, align 8, !tbaa !82
  %16 = icmp eq i32 %15, %5
  %17 = getelementptr inbounds nuw i8, ptr %14, i64 4
  %18 = load i32, ptr %17, align 4
  %19 = icmp eq i32 %18, 4
  %20 = select i1 %16, i1 %19, i1 false
  br i1 %20, label %21, label %_ZNK13poly_rewriterI16bv_rewriter_coreE6is_addEP4expr.exit.thread

21:                                               ; preds = %_ZNK13poly_rewriterI16bv_rewriter_coreE6is_addEP4expr.exit
  %22 = getelementptr inbounds nuw i8, ptr %1, i64 24
  %23 = load i32, ptr %22, align 8, !tbaa !83
  %24 = icmp eq i32 %23, 2
  br i1 %24, label %25, label %_ZNK13poly_rewriterI16bv_rewriter_coreE6is_addEP4expr.exit.thread

25:                                               ; preds = %21
  %26 = getelementptr inbounds nuw i8, ptr %1, i64 32
  %27 = load ptr, ptr %26, align 8, !tbaa !67
  %28 = tail call noundef zeroext i1 @_ZNK11bv_rewriter17is_minus_one_coreEP4expr(ptr noundef nonnull align 8 dereferenceable(157) %0, ptr noundef %27)
  %29 = getelementptr inbounds nuw i8, ptr %1, i64 40
  %30 = load ptr, ptr %29, align 8, !tbaa !67
  br i1 %28, label %_ZNK13poly_rewriterI16bv_rewriter_coreE6is_addEP4expr.exit.thread.sink.split, label %31

31:                                               ; preds = %25
  %32 = tail call noundef zeroext i1 @_ZNK11bv_rewriter17is_minus_one_coreEP4expr(ptr noundef nonnull align 8 dereferenceable(157) %0, ptr noundef %30)
  br i1 %32, label %33, label %_ZNK13poly_rewriterI16bv_rewriter_coreE6is_addEP4expr.exit.thread

33:                                               ; preds = %31
  %34 = load ptr, ptr %26, align 8, !tbaa !67
  br label %_ZNK13poly_rewriterI16bv_rewriter_coreE6is_addEP4expr.exit.thread.sink.split

_ZNK13poly_rewriterI16bv_rewriter_coreE6is_addEP4expr.exit.thread.sink.split: ; preds = %25, %33
  %.sink = phi ptr [ %34, %33 ], [ %30, %25 ]
  store ptr %.sink, ptr %2, align 8, !tbaa !67
  br label %_ZNK13poly_rewriterI16bv_rewriter_coreE6is_addEP4expr.exit.thread

_ZNK13poly_rewriterI16bv_rewriter_coreE6is_addEP4expr.exit.thread: ; preds = %_ZNK13poly_rewriterI16bv_rewriter_coreE6is_addEP4expr.exit.thread.sink.split, %10, %3, %_ZNK13poly_rewriterI16bv_rewriter_coreE6is_addEP4expr.exit, %21, %31
  %.0 = phi i1 [ false, %31 ], [ false, %21 ], [ false, %_ZNK13poly_rewriterI16bv_rewriter_coreE6is_addEP4expr.exit ], [ false, %3 ], [ false, %10 ], [ true, %_ZNK13poly_rewriterI16bv_rewriter_coreE6is_addEP4expr.exit.thread.sink.split ]
  ret i1 %.0
}